; Function Attrs: mustprogress nounwind uwtable
define dso_local void @_ZNK4node5http212Http2Session15diagnostic_nameB5cxx11Ev(ptr noalias sret(%"class.std::__cxx11::basic_string") align 8 %agg.result, ptr nocapture noundef nonnull readonly align 8 dereferenceable(640) %this) unnamed_addr #4 align 2 {
entry:
  %ref.tmp = alloca %"class.std::__cxx11::basic_string", align 8
  %ref.tmp2 = alloca %"class.std::__cxx11::basic_string", align 8
  %ref.tmp3 = alloca %"class.std::__cxx11::basic_string", align 8
  %ref.tmp4 = alloca %"class.std::__cxx11::basic_string", align 8
  %ref.tmp5 = alloca %"class.std::allocator.172", align 1
  %ref.tmp6 = alloca %"class.std::__cxx11::basic_string", align 8
  call void @_ZNSaIcEC1Ev(ptr noundef nonnull align 1 dereferenceable(1) %ref.tmp5) #29
  %call.i = call noundef ptr @_ZNSt7__cxx1112basic_stringIcSt11char_traitsIcESaIcEE13_M_local_dataEv(ptr noundef nonnull align 8 dereferenceable(32) %ref.tmp4) #29
  call void @_ZNSt7__cxx1112basic_stringIcSt11char_traitsIcESaIcEE12_Alloc_hiderC1EPcRKS3_(ptr noundef nonnull align 8 dereferenceable(8) %ref.tmp4, ptr noundef %call.i, ptr noundef nonnull align 1 dereferenceable(1) %ref.tmp5) #29
  call void @_ZNSt7__cxx1112basic_stringIcSt11char_traitsIcESaIcEE12_M_constructIPKcEEvT_S8_St20forward_iterator_tag(ptr noundef nonnull align 8 dereferenceable(32) %ref.tmp4, ptr noundef nonnull @.str.45, ptr noundef nonnull getelementptr inbounds ([14 x i8], ptr @.str.45, i64 0, i64 13))
  %session_type_.i = getelementptr inbounds i8, ptr %this, i64 216
  %0 = load i32, ptr %session_type_.i, align 8
  switch i32 %0, label %do.body.i [
    i32 0, label %_ZNK4node5http212Http2Session8TypeNameEv.exit
    i32 1, label %sw.bb2.i
  ]

sw.bb2.i:                                         ; preds = %entry
  br label %_ZNK4node5http212Http2Session8TypeNameEv.exit

do.body.i:                                        ; preds = %entry
  %1 = load ptr, ptr @stderr, align 8
  call void @_ZN4node19DumpNativeBacktraceEP8_IO_FILE(ptr noundef %1) #29
  %2 = load ptr, ptr @stderr, align 8
  call void @_ZN4node23DumpJavaScriptBacktraceEP8_IO_FILE(ptr noundef %2) #29
  %3 = load ptr, ptr @stderr, align 8
  %call.i1 = call i32 @fflush(ptr noundef %3)
  call void @abort() #30
  unreachable

_ZNK4node5http212Http2Session8TypeNameEv.exit:    ; preds = %entry, %sw.bb2.i
  %retval.0.i = phi ptr [ @.str.14, %sw.bb2.i ], [ @.str.13, %entry ]
  %call.i2 = call noundef nonnull align 8 dereferenceable(32) ptr @_ZNSt7__cxx1112basic_stringIcSt11char_traitsIcESaIcEE6appendEPKc(ptr noundef nonnull align 8 dereferenceable(32) %ref.tmp4, ptr noundef nonnull %retval.0.i) #29, !noalias !60
  call void @_ZNSt7__cxx1112basic_stringIcSt11char_traitsIcESaIcEEC1EOS4_(ptr noundef nonnull align 8 dereferenceable(32) %ref.tmp3, ptr noundef nonnull align 8 dereferenceable(32) %call.i2) #29
  %call.i3 = call noundef nonnull align 8 dereferenceable(32) ptr @_ZNSt7__cxx1112basic_stringIcSt11char_traitsIcESaIcEE6appendEPKc(ptr noundef nonnull align 8 dereferenceable(32) %ref.tmp3, ptr noundef nonnull @.str.46) #29, !noalias !63
  call void @_ZNSt7__cxx1112basic_stringIcSt11char_traitsIcESaIcEEC1EOS4_(ptr noundef nonnull align 8 dereferenceable(32) %ref.tmp2, ptr noundef nonnull align 8 dereferenceable(32) %call.i3) #29
  %async_id_.i = getelementptr inbounds i8, ptr %this, i64 40
  %4 = load double, ptr %async_id_.i, align 8
  %conv = fptosi double %4 to i64
  call void @_ZNSt7__cxx119to_stringEl(ptr nonnull sret(%"class.std::__cxx11::basic_string") align 8 %ref.tmp6, i64 noundef %conv)
  %call.i4 = call noundef i64 @_ZNKSt7__cxx1112basic_stringIcSt11char_traitsIcESaIcEE4sizeEv(ptr noundef nonnull align 8 dereferenceable(32) %ref.tmp2) #29, !noalias !66
  %call1.i = call noundef i64 @_ZNKSt7__cxx1112basic_stringIcSt11char_traitsIcESaIcEE4sizeEv(ptr noundef nonnull align 8 dereferenceable(32) %ref.tmp6) #29, !noalias !66
  %add.i = add i64 %call1.i, %call.i4
  %call2.i = call noundef i64 @_ZNKSt7__cxx1112basic_stringIcSt11char_traitsIcESaIcEE8capacityEv(ptr noundef nonnull align 8 dereferenceable(32) %ref.tmp2) #29, !noalias !66
  %cmp.i = icmp ugt i64 %add.i, %call2.i
  br i1 %cmp.i, label %land.lhs.true.i, label %if.end7.i

land.lhs.true.i:                                  ; preds = %_ZNK4node5http212Http2Session8TypeNameEv.exit
  %call3.i = call noundef i64 @_ZNKSt7__cxx1112basic_stringIcSt11char_traitsIcESaIcEE8capacityEv(ptr noundef nonnull align 8 dereferenceable(32) %ref.tmp6) #29, !noalias !66
  %cmp4.not.i = icmp ugt i64 %add.i, %call3.i
  br i1 %cmp4.not.i, label %if.end7.i, label %if.then5.i

if.then5.i:                                       ; preds = %land.lhs.true.i
  %call6.i = call noundef nonnull align 8 dereferenceable(32) ptr @_ZNSt7__cxx1112basic_stringIcSt11char_traitsIcESaIcEE6insertEmRKS4_(ptr noundef nonnull align 8 dereferenceable(32) %ref.tmp6, i64 noundef 0, ptr noundef nonnull align 8 dereferenceable(32) %ref.tmp2) #29, !noalias !66
  br label %_ZStplIcSt11char_traitsIcESaIcEENSt7__cxx1112basic_stringIT_T0_T1_EEOS8_S9_.exit

if.end7.i:                                        ; preds = %land.lhs.true.i, %_ZNK4node5http212Http2Session8TypeNameEv.exit
  %call8.i = call noundef nonnull align 8 dereferenceable(32) ptr @_ZNSt7__cxx1112basic_stringIcSt11char_traitsIcESaIcEE6appendERKS4_(ptr noundef nonnull align 8 dereferenceable(32) %ref.tmp2, ptr noundef nonnull align 8 dereferenceable(32) %ref.tmp6) #29, !noalias !66
  br label %_ZStplIcSt11char_traitsIcESaIcEENSt7__cxx1112basic_stringIT_T0_T1_EEOS8_S9_.exit

_ZStplIcSt11char_traitsIcESaIcEENSt7__cxx1112basic_stringIT_T0_T1_EEOS8_S9_.exit: ; preds = %if.then5.i, %if.end7.i
  %call8.sink.i = phi ptr [ %call8.i, %if.end7.i ], [ %call6.i, %if.then5.i ]
  call void @_ZNSt7__cxx1112basic_stringIcSt11char_traitsIcESaIcEEC1EOS4_(ptr noundef nonnull align 8 dereferenceable(32) %ref.tmp, ptr noundef nonnull align 8 dereferenceable(32) %call8.sink.i) #29
  %call.i5 = call noundef nonnull align 8 dereferenceable(32) ptr @_ZNSt7__cxx1112basic_stringIcSt11char_traitsIcESaIcEE6appendEPKc(ptr noundef nonnull align 8 dereferenceable(32) %ref.tmp, ptr noundef nonnull @.str.47) #29, !noalias !69
  call void @_ZNSt7__cxx1112basic_stringIcSt11char_traitsIcESaIcEEC1EOS4_(ptr noundef nonnull align 8 dereferenceable(32) %agg.result, ptr noundef nonnull align 8 dereferenceable(32) %call.i5) #29
  call void @_ZNSt7__cxx1112basic_stringIcSt11char_traitsIcESaIcEED1Ev(ptr noundef nonnull align 8 dereferenceable(32) %ref.tmp) #29
  call void @_ZNSt7__cxx1112basic_stringIcSt11char_traitsIcESaIcEED1Ev(ptr noundef nonnull align 8 dereferenceable(32) %ref.tmp6) #29
  call void @_ZNSt7__cxx1112basic_stringIcSt11char_traitsIcESaIcEED1Ev(ptr noundef nonnull align 8 dereferenceable(32) %ref.tmp2) #29
  call void @_ZNSt7__cxx1112basic_stringIcSt11char_traitsIcESaIcEED1Ev(ptr noundef nonnull align 8 dereferenceable(32) %ref.tmp3) #29
  call void @_ZNSt7__cxx1112basic_stringIcSt11char_traitsIcESaIcEED1Ev(ptr noundef nonnull align 8 dereferenceable(32) %ref.tmp4) #29
  call void @_ZNSaIcED1Ev(ptr noundef nonnull align 1 dereferenceable(1) %ref.tmp5) #29
  ret void
}